; Function Attrs: mustprogress nofree norecurse nosync nounwind willreturn memory(read, inaccessiblemem: none) uwtable
define hidden range(i32 0, 2) i32 @SSL_renegotiate_pending(ptr noundef readonly captures(none) %0) local_unnamed_addr #10 {
  %2 = getelementptr inbounds nuw i8, ptr %0, i64 52
  %3 = load i32, ptr %2, align 4, !tbaa !128
  %4 = and i32 %3, 12288
  %.not2 = icmp eq i32 %4, 0
  br i1 %.not2, label %12, label %5

5:                                                ; preds = %1
  %6 = getelementptr inbounds nuw i8, ptr %0, i64 80
  %7 = load ptr, ptr %6, align 8, !tbaa !136
  %8 = getelementptr inbounds nuw i8, ptr %7, i64 81
  %9 = load i8, ptr %8, align 1, !tbaa !158
  %10 = icmp ne i8 %9, 0
  %11 = zext i1 %10 to i32
  br label %12

12:                                               ; preds = %5, %1
  %13 = phi i32 [ 0, %1 ], [ %11, %5 ]
  ret i32 %13
}